target datalayout = "e-m:e-p270:32:32-p271:32:32-p272:64:64-i64:64-i128:128-f80:128-n8:16:32:64-S128"
target triple = "x86_64-pc-linux-gnu"

%struct.ggml_tensor = type { i32, ptr, [4 x i64], [4 x i64], i32, [16 x i32], i32, [10 x ptr], ptr, i64, ptr, [64 x i8], ptr, [8 x i8] }

; Function Attrs: nounwind uwtable
define ptr @ggml_set_name(ptr noundef %0, ptr noundef %1) #5 {
  %3 = alloca ptr, align 8
  %4 = alloca ptr, align 8
  %5 = alloca i64, align 8
  store ptr %0, ptr %3, align 8, !tbaa !54
  store ptr %1, ptr %4, align 8, !tbaa !3
  call void @llvm.lifetime.start.p0(i64 8, ptr %5) #14
  store i64 0, ptr %5, align 8, !tbaa !19
  br label %6

6:                                                ; preds = %27, %2
  %7 = load i64, ptr %5, align 8, !tbaa !19
  %8 = icmp ult i64 %7, 63
  br i1 %8, label %9, label %16

9:                                                ; preds = %6
  %10 = load ptr, ptr %4, align 8, !tbaa !3
  %11 = load i64, ptr %5, align 8, !tbaa !19
  %12 = getelementptr inbounds nuw i8, ptr %10, i64 %11
  %13 = load i8, ptr %12, align 1, !tbaa !17
  %14 = sext i8 %13 to i32
  %15 = icmp ne i32 %14, 0
  br label %16

16:                                               ; preds = %9, %6
  %17 = phi i1 [ false, %6 ], [ %15, %9 ]
  br i1 %17, label %18, label %30

18:                                               ; preds = %16
  %19 = load ptr, ptr %4, align 8, !tbaa !3
  %20 = load i64, ptr %5, align 8, !tbaa !19
  %21 = getelementptr inbounds nuw i8, ptr %19, i64 %20
  %22 = load i8, ptr %21, align 1, !tbaa !17
  %23 = load ptr, ptr %3, align 8, !tbaa !54
  %24 = getelementptr inbounds nuw %struct.ggml_tensor, ptr %23, i32 0, i32 11
  %25 = load i64, ptr %5, align 8, !tbaa !19
  %26 = getelementptr inbounds nuw [64 x i8], ptr %24, i64 0, i64 %25
  store i8 %22, ptr %26, align 1, !tbaa !17
  br label %27

27:                                               ; preds = %18
  %28 = load i64, ptr %5, align 8, !tbaa !19
  %29 = add i64 %28, 1
  store i64 %29, ptr %5, align 8, !tbaa !19
  br label %6, !llvm.loop !100

30:                                               ; preds = %16
  %31 = load ptr, ptr %3, align 8, !tbaa !54
  %32 = getelementptr inbounds nuw %struct.ggml_tensor, ptr %31, i32 0, i32 11
  %33 = load i64, ptr %5, align 8, !tbaa !19
  %34 = getelementptr inbounds nuw [64 x i8], ptr %32, i64 0, i64 %33
  store i8 0, ptr %34, align 1, !tbaa !17
  %35 = load ptr, ptr %3, align 8, !tbaa !54
  call void @llvm.lifetime.end.p0(i64 8, ptr %5) #14
  ret ptr %35
}