; Function Attrs: nofree norecurse nosync nounwind memory(argmem: readwrite) uwtable
define noundef ptr @ggml_set_name(ptr noundef returned writeonly %0, ptr noundef readonly captures(none) %1) local_unnamed_addr #12 {
  %3 = getelementptr inbounds nuw i8, ptr %0, i64 256
  br label %4

4:                                                ; preds = %2, %7
  %.010 = phi i64 [ 0, %2 ], [ %9, %7 ]
  %5 = getelementptr inbounds nuw i8, ptr %1, i64 %.010
  %6 = load i8, ptr %5, align 1, !tbaa !13
  %.not = icmp eq i8 %6, 0
  br i1 %.not, label %.critedge, label %7

7:                                                ; preds = %4
  %8 = getelementptr inbounds nuw [64 x i8], ptr %3, i64 0, i64 %.010
  store i8 %6, ptr %8, align 1, !tbaa !13
  %9 = add nuw nsw i64 %.010, 1
  %exitcond.not = icmp eq i64 %9, 63
  br i1 %exitcond.not, label %.critedge, label %4, !llvm.loop !85

.critedge:                                        ; preds = %7, %4
  %.0.lcssa = phi i64 [ 63, %7 ], [ %.010, %4 ]
  %10 = getelementptr inbounds nuw [64 x i8], ptr %3, i64 0, i64 %.0.lcssa
  store i8 0, ptr %10, align 1, !tbaa !13
  ret ptr %0
}